target datalayout = "e-m:e-p270:32:32-p271:32:32-p272:64:64-i64:64-i128:128-f80:128-n8:16:32:64-S128"
target triple = "x86_64-pc-linux-gnu"

%struct._someip_payload_parameter_base_type_list = type { i32, ptr, ptr, i8, i32, i32 }

@.str.398 = private unnamed_addr constant [33 x i8] c"Name cannot be empty (ID: 0x%x)!\00", align 1
@.str.414 = private unnamed_addr constant [51 x i8] c"We currently only support 32 bit IDs (%i) Name: %s\00", align 1
@.str.415 = private unnamed_addr constant [88 x i8] c"Bit length of base type may only be 8, 16, 32, or 64. Affected item: ID (%i) Name (%s).\00", align 1
@.str.416 = private unnamed_addr constant [154 x i8] c"Bit length of encoded type must be equal to bit length of base type. Affected item: ID (%i) Name (%s). Shortened types supported by Signal-PDU dissector.\00", align 1

; Function Attrs: null_pointer_is_valid sspstrong uwtable
define internal zeroext i1 @update_someip_parameter_base_type_list(ptr noundef %0, ptr noundef %1) #0 {
  %3 = alloca i1, align 1
  %4 = alloca ptr, align 8
  %5 = alloca ptr, align 8
  %6 = alloca ptr, align 8
  %7 = alloca i32, align 4
  store ptr %0, ptr %4, align 8
  store ptr %1, ptr %5, align 8
  call void @llvm.lifetime.start.p0(i64 8, ptr %6) #19
  %8 = load ptr, ptr %4, align 8
  store ptr %8, ptr %6, align 8
  %9 = load ptr, ptr %6, align 8
  %10 = getelementptr inbounds nuw %struct._someip_payload_parameter_base_type_list, ptr %9, i32 0, i32 1
  %11 = load ptr, ptr %10, align 8
  %12 = icmp eq ptr %11, null
  br i1 %12, label %21, label %13

13:                                               ; preds = %2
  %14 = load ptr, ptr %6, align 8
  %15 = getelementptr inbounds nuw %struct._someip_payload_parameter_base_type_list, ptr %14, i32 0, i32 1
  %16 = load ptr, ptr %15, align 8
  %17 = getelementptr i8, ptr %16, i64 0
  %18 = load i8, ptr %17, align 1
  %19 = sext i8 %18 to i32
  %20 = icmp eq i32 %19, 0
  br i1 %20, label %21, label %27

21:                                               ; preds = %13, %2
  %22 = load ptr, ptr %6, align 8
  %23 = getelementptr inbounds nuw %struct._someip_payload_parameter_base_type_list, ptr %22, i32 0, i32 0
  %24 = load i32, ptr %23, align 8
  %25 = call noalias ptr (ptr, ptr, ...) @wmem_strdup_printf(ptr noundef null, ptr noundef @.str.398, i32 noundef %24)
  %26 = load ptr, ptr %5, align 8
  store ptr %25, ptr %26, align 8
  store i1 false, ptr %3, align 1
  store i32 1, ptr %7, align 4
  br label %88

27:                                               ; preds = %13
  %28 = load ptr, ptr %6, align 8
  %29 = getelementptr inbounds nuw %struct._someip_payload_parameter_base_type_list, ptr %28, i32 0, i32 0
  %30 = load i32, ptr %29, align 8
  %31 = icmp ugt i32 %30, -1
  br i1 %31, label %32, label %41

32:                                               ; preds = %27
  %33 = load ptr, ptr %6, align 8
  %34 = getelementptr inbounds nuw %struct._someip_payload_parameter_base_type_list, ptr %33, i32 0, i32 0
  %35 = load i32, ptr %34, align 8
  %36 = load ptr, ptr %6, align 8
  %37 = getelementptr inbounds nuw %struct._someip_payload_parameter_base_type_list, ptr %36, i32 0, i32 1
  %38 = load ptr, ptr %37, align 8
  %39 = call noalias ptr (ptr, ptr, ...) @wmem_strdup_printf(ptr noundef null, ptr noundef @.str.414, i32 noundef %35, ptr noundef %38)
  %40 = load ptr, ptr %5, align 8
  store ptr %39, ptr %40, align 8
  store i1 false, ptr %3, align 1
  store i32 1, ptr %7, align 4
  br label %88

41:                                               ; preds = %27
  %42 = load ptr, ptr %6, align 8
  %43 = getelementptr inbounds nuw %struct._someip_payload_parameter_base_type_list, ptr %42, i32 0, i32 4
  %44 = load i32, ptr %43, align 4
  %45 = icmp ne i32 %44, 8
  br i1 %45, label %46, label %70

46:                                               ; preds = %41
  %47 = load ptr, ptr %6, align 8
  %48 = getelementptr inbounds nuw %struct._someip_payload_parameter_base_type_list, ptr %47, i32 0, i32 4
  %49 = load i32, ptr %48, align 4
  %50 = icmp ne i32 %49, 16
  br i1 %50, label %51, label %70

51:                                               ; preds = %46
  %52 = load ptr, ptr %6, align 8
  %53 = getelementptr inbounds nuw %struct._someip_payload_parameter_base_type_list, ptr %52, i32 0, i32 4
  %54 = load i32, ptr %53, align 4
  %55 = icmp ne i32 %54, 32
  br i1 %55, label %56, label %70

56:                                               ; preds = %51
  %57 = load ptr, ptr %6, align 8
  %58 = getelementptr inbounds nuw %struct._someip_payload_parameter_base_type_list, ptr %57, i32 0, i32 4
  %59 = load i32, ptr %58, align 4
  %60 = icmp ne i32 %59, 64
  br i1 %60, label %61, label %70

61:                                               ; preds = %56
  %62 = load ptr, ptr %6, align 8
  %63 = getelementptr inbounds nuw %struct._someip_payload_parameter_base_type_list, ptr %62, i32 0, i32 0
  %64 = load i32, ptr %63, align 8
  %65 = load ptr, ptr %6, align 8
  %66 = getelementptr inbounds nuw %struct._someip_payload_parameter_base_type_list, ptr %65, i32 0, i32 1
  %67 = load ptr, ptr %66, align 8
  %68 = call noalias ptr (ptr, ptr, ...) @wmem_strdup_printf(ptr noundef null, ptr noundef @.str.415, i32 noundef %64, ptr noundef %67)
  %69 = load ptr, ptr %5, align 8
  store ptr %68, ptr %69, align 8
  store i1 false, ptr %3, align 1
  store i32 1, ptr %7, align 4
  br label %88

70:                                               ; preds = %56, %51, %46, %41
  %71 = load ptr, ptr %6, align 8
  %72 = getelementptr inbounds nuw %struct._someip_payload_parameter_base_type_list, ptr %71, i32 0, i32 4
  %73 = load i32, ptr %72, align 4
  %74 = load ptr, ptr %6, align 8
  %75 = getelementptr inbounds nuw %struct._someip_payload_parameter_base_type_list, ptr %74, i32 0, i32 5
  %76 = load i32, ptr %75, align 8
  %77 = icmp ne i32 %73, %76
  br i1 %77, label %78, label %87

78:                                               ; preds = %70
  %79 = load ptr, ptr %6, align 8
  %80 = getelementptr inbounds nuw %struct._someip_payload_parameter_base_type_list, ptr %79, i32 0, i32 0
  %81 = load i32, ptr %80, align 8
  %82 = load ptr, ptr %6, align 8
  %83 = getelementptr inbounds nuw %struct._someip_payload_parameter_base_type_list, ptr %82, i32 0, i32 1
  %84 = load ptr, ptr %83, align 8
  %85 = call noalias ptr (ptr, ptr, ...) @wmem_strdup_printf(ptr noundef null, ptr noundef @.str.416, i32 noundef %81, ptr noundef %84)
  %86 = load ptr, ptr %5, align 8
  store ptr %85, ptr %86, align 8
  store i1 false, ptr %3, align 1
  store i32 1, ptr %7, align 4
  br label %88

87:                                               ; preds = %70
  store i1 true, ptr %3, align 1
  store i32 1, ptr %7, align 4
  br label %88

88:                                               ; preds = %87, %78, %61, %32, %21
  call void @llvm.lifetime.end.p0(i64 8, ptr %6) #19
  %89 = load i1, ptr %3, align 1
  ret i1 %89
}