; Function Attrs: null_pointer_is_valid sspstrong uwtable
define internal noundef zeroext i1 @update_someip_parameter_base_type_list(ptr noundef readonly captures(none) %0, ptr noundef writeonly captures(none) %1) #0 {
  %3 = getelementptr inbounds nuw i8, ptr %0, i64 8
  %4 = load ptr, ptr %3, align 8
  %5 = icmp eq ptr %4, null
  br i1 %5, label %9, label %6

6:                                                ; preds = %2
  %7 = load i8, ptr %4, align 1
  %8 = icmp eq i8 %7, 0
  br i1 %8, label %9, label %12

9:                                                ; preds = %6, %2
  %10 = load i32, ptr %0, align 8
  %11 = tail call noalias ptr (ptr, ptr, ...) @wmem_strdup_printf(ptr noundef null, ptr noundef nonnull @.str.398, i32 noundef %10)
  br label %.sink.split

12:                                               ; preds = %6
  %13 = load i32, ptr %0, align 8
  %14 = getelementptr inbounds nuw i8, ptr %0, i64 28
  %15 = load i32, ptr %14, align 4
  %16 = add i32 %15, -8
  %17 = tail call i32 @llvm.fshl.i32(i32 %16, i32 %16, i32 29)
  switch i32 %17, label %18 [
    i32 0, label %20
    i32 1, label %20
    i32 3, label %20
    i32 7, label %20
  ]

18:                                               ; preds = %12
  %19 = tail call noalias ptr (ptr, ptr, ...) @wmem_strdup_printf(ptr noundef null, ptr noundef nonnull @.str.415, i32 noundef %13, ptr noundef nonnull %4)
  br label %.sink.split

20:                                               ; preds = %12, %12, %12, %12
  %21 = getelementptr inbounds nuw i8, ptr %0, i64 32
  %22 = load i32, ptr %21, align 8
  %.not27 = icmp eq i32 %15, %22
  br i1 %.not27, label %25, label %23

23:                                               ; preds = %20
  %24 = tail call noalias ptr (ptr, ptr, ...) @wmem_strdup_printf(ptr noundef null, ptr noundef nonnull @.str.416, i32 noundef %13, ptr noundef nonnull %4)
  br label %.sink.split

.sink.split:                                      ; preds = %9, %18, %23
  %.sink = phi ptr [ %24, %23 ], [ %19, %18 ], [ %11, %9 ]
  store ptr %.sink, ptr %1, align 8
  br label %25

25:                                               ; preds = %.sink.split, %20
  %.0 = phi i1 [ true, %20 ], [ false, %.sink.split ]
  ret i1 %.0
}